target datalayout = "e-m:e-p270:32:32-p271:32:32-p272:64:64-i64:64-i128:128-f80:128-n8:16:32:64-S128"
target triple = "x86_64-pc-linux-gnu"

%struct._php_stream_filter_ops = type { ptr, ptr, ptr }

@php_iconv_stream_filter_ops = internal constant %struct._php_stream_filter_ops { ptr @php_iconv_stream_filter_do_filter, ptr @php_iconv_stream_filter_cleanup, ptr @.str.101 }, align 8
@.str.100 = private unnamed_addr constant [3 x i8] c"/.\00", align 1

; Function Attrs: nounwind uwtable
define internal ptr @php_iconv_stream_filter_factory_create(ptr noundef %0, ptr noundef %1, i8 noundef zeroext %2) #0 {
  %4 = alloca ptr, align 8
  %5 = alloca ptr, align 8
  %6 = alloca ptr, align 8
  %7 = alloca i8, align 1
  %8 = alloca ptr, align 8
  %9 = alloca ptr, align 8
  %10 = alloca ptr, align 8
  %11 = alloca ptr, align 8
  %12 = alloca i64, align 8
  %13 = alloca i64, align 8
  %14 = alloca i32, align 4
  store ptr %0, ptr %5, align 8, !tbaa !23
  store ptr %1, ptr %6, align 8, !tbaa !11
  store i8 %2, ptr %7, align 1, !tbaa !13
  call void @llvm.lifetime.start.p0(i64 8, ptr %8) #15
  store ptr null, ptr %8, align 8, !tbaa !104
  call void @llvm.lifetime.start.p0(i64 8, ptr %9) #15
  call void @llvm.lifetime.start.p0(i64 8, ptr %10) #15
  store ptr null, ptr %10, align 8, !tbaa !23
  call void @llvm.lifetime.start.p0(i64 8, ptr %11) #15
  store ptr null, ptr %11, align 8, !tbaa !23
  call void @llvm.lifetime.start.p0(i64 8, ptr %12) #15
  call void @llvm.lifetime.start.p0(i64 8, ptr %13) #15
  %15 = load ptr, ptr %5, align 8, !tbaa !23
  %16 = call ptr @strchr(ptr noundef %15, i32 noundef 46) #17
  store ptr %16, ptr %10, align 8, !tbaa !23
  %17 = icmp eq ptr %16, null
  br i1 %17, label %18, label %19

18:                                               ; preds = %3
  store ptr null, ptr %4, align 8
  store i32 1, ptr %14, align 4
  br label %94

19:                                               ; preds = %3
  %20 = load ptr, ptr %10, align 8, !tbaa !23
  %21 = getelementptr inbounds nuw i8, ptr %20, i32 1
  store ptr %21, ptr %10, align 8, !tbaa !23
  %22 = load ptr, ptr %10, align 8, !tbaa !23
  %23 = call ptr @strchr(ptr noundef %22, i32 noundef 46) #17
  store ptr %23, ptr %10, align 8, !tbaa !23
  %24 = icmp eq ptr %23, null
  br i1 %24, label %25, label %26

25:                                               ; preds = %19
  store ptr null, ptr %4, align 8
  store i32 1, ptr %14, align 4
  br label %94

26:                                               ; preds = %19
  %27 = load ptr, ptr %10, align 8, !tbaa !23
  %28 = getelementptr inbounds nuw i8, ptr %27, i32 1
  store ptr %28, ptr %10, align 8, !tbaa !23
  %29 = load ptr, ptr %10, align 8, !tbaa !23
  %30 = call ptr @strpbrk(ptr noundef %29, ptr noundef @.str.100) #17
  store ptr %30, ptr %11, align 8, !tbaa !23
  %31 = icmp eq ptr %30, null
  br i1 %31, label %32, label %33

32:                                               ; preds = %26
  store ptr null, ptr %4, align 8
  store i32 1, ptr %14, align 4
  br label %94

33:                                               ; preds = %26
  %34 = load ptr, ptr %11, align 8, !tbaa !23
  %35 = load ptr, ptr %10, align 8, !tbaa !23
  %36 = ptrtoint ptr %34 to i64
  %37 = ptrtoint ptr %35 to i64
  %38 = sub i64 %36, %37
  store i64 %38, ptr %12, align 8, !tbaa !24
  %39 = load ptr, ptr %11, align 8, !tbaa !23
  %40 = getelementptr inbounds nuw i8, ptr %39, i32 1
  store ptr %40, ptr %11, align 8, !tbaa !23
  %41 = load ptr, ptr %11, align 8, !tbaa !23
  %42 = call i64 @strlen(ptr noundef %41) #17
  store i64 %42, ptr %13, align 8, !tbaa !24
  %43 = load i64, ptr %12, align 8, !tbaa !24
  %44 = icmp uge i64 %43, 64
  br i1 %44, label %48, label %45

45:                                               ; preds = %33
  %46 = load i64, ptr %13, align 8, !tbaa !24
  %47 = icmp uge i64 %46, 64
  br i1 %47, label %48, label %49

48:                                               ; preds = %45, %33
  store ptr null, ptr %4, align 8
  store i32 1, ptr %14, align 4
  br label %94

49:                                               ; preds = %45
  %50 = load i8, ptr %7, align 1, !tbaa !13
  %51 = zext i8 %50 to i32
  %52 = icmp ne i32 %51, 0
  br i1 %52, label %53, label %55

53:                                               ; preds = %49
  %54 = call noalias ptr @__zend_malloc(i64 noundef 184) #18
  br label %57

55:                                               ; preds = %49
  %56 = call noalias ptr @_emalloc_192()
  br label %57

57:                                               ; preds = %55, %53
  %58 = phi ptr [ %54, %53 ], [ %56, %55 ]
  store ptr %58, ptr %9, align 8, !tbaa !106
  %59 = load ptr, ptr %9, align 8, !tbaa !106
  %60 = load ptr, ptr %11, align 8, !tbaa !23
  %61 = load i64, ptr %13, align 8, !tbaa !24
  %62 = load ptr, ptr %10, align 8, !tbaa !23
  %63 = load i64, ptr %12, align 8, !tbaa !24
  %64 = load i8, ptr %7, align 1, !tbaa !13
  %65 = zext i8 %64 to i32
  %66 = call i32 @php_iconv_stream_filter_ctor(ptr noundef %59, ptr noundef %60, i64 noundef %61, ptr noundef %62, i64 noundef %63, i32 noundef %65)
  %67 = icmp ne i32 %66, 0
  br i1 %67, label %68, label %77

68:                                               ; preds = %57
  %69 = load i8, ptr %7, align 1, !tbaa !13
  %70 = zext i8 %69 to i32
  %71 = icmp ne i32 %70, 0
  br i1 %71, label %72, label %74

72:                                               ; preds = %68
  %73 = load ptr, ptr %9, align 8, !tbaa !106
  call void @free(ptr noundef %73) #15
  br label %76

74:                                               ; preds = %68
  %75 = load ptr, ptr %9, align 8, !tbaa !106
  call void @_efree(ptr noundef %75)
  br label %76

76:                                               ; preds = %74, %72
  store ptr null, ptr %4, align 8
  store i32 1, ptr %14, align 4
  br label %94

77:                                               ; preds = %57
  %78 = load ptr, ptr %9, align 8, !tbaa !106
  %79 = load i8, ptr %7, align 1, !tbaa !13
  %80 = call ptr @_php_stream_filter_alloc(ptr noundef @php_iconv_stream_filter_ops, ptr noundef %78, i8 noundef zeroext %79)
  store ptr %80, ptr %8, align 8, !tbaa !104
  %81 = icmp eq ptr null, %80
  br i1 %81, label %82, label %92

82:                                               ; preds = %77
  %83 = load ptr, ptr %9, align 8, !tbaa !106
  call void @php_iconv_stream_filter_dtor(ptr noundef %83)
  %84 = load i8, ptr %7, align 1, !tbaa !13
  %85 = zext i8 %84 to i32
  %86 = icmp ne i32 %85, 0
  br i1 %86, label %87, label %89

87:                                               ; preds = %82
  %88 = load ptr, ptr %9, align 8, !tbaa !106
  call void @free(ptr noundef %88) #15
  br label %91

89:                                               ; preds = %82
  %90 = load ptr, ptr %9, align 8, !tbaa !106
  call void @_efree(ptr noundef %90)
  br label %91

91:                                               ; preds = %89, %87
  br label %92

92:                                               ; preds = %91, %77
  %93 = load ptr, ptr %8, align 8, !tbaa !104
  store ptr %93, ptr %4, align 8
  store i32 1, ptr %14, align 4
  br label %94

94:                                               ; preds = %92, %76, %48, %32, %25, %18
  call void @llvm.lifetime.end.p0(i64 8, ptr %13) #15
  call void @llvm.lifetime.end.p0(i64 8, ptr %12) #15
  call void @llvm.lifetime.end.p0(i64 8, ptr %11) #15
  call void @llvm.lifetime.end.p0(i64 8, ptr %10) #15
  call void @llvm.lifetime.end.p0(i64 8, ptr %9) #15
  call void @llvm.lifetime.end.p0(i64 8, ptr %8) #15
  %95 = load ptr, ptr %4, align 8
  ret ptr %95
}