; Function Attrs: nounwind uwtable
define internal ptr @php_iconv_stream_filter_factory_create(ptr noundef %0, ptr readnone captures(none) %1, i8 noundef zeroext %2) #0 {
  %4 = tail call ptr @strchr(ptr noundef nonnull dereferenceable(1) %0, i32 noundef 46) #17
  %5 = icmp eq ptr %4, null
  br i1 %5, label %58, label %6

6:                                                ; preds = %3
  %7 = getelementptr inbounds nuw i8, ptr %4, i64 1
  %8 = tail call ptr @strchr(ptr noundef nonnull dereferenceable(1) %7, i32 noundef 46) #17
  %9 = icmp eq ptr %8, null
  br i1 %9, label %58, label %10

10:                                               ; preds = %6
  %11 = getelementptr inbounds nuw i8, ptr %8, i64 1
  %12 = tail call ptr @strpbrk(ptr noundef nonnull %11, ptr noundef nonnull @.str.100) #17
  %13 = icmp eq ptr %12, null
  br i1 %13, label %58, label %14

14:                                               ; preds = %10
  %15 = ptrtoint ptr %12 to i64
  %16 = ptrtoint ptr %11 to i64
  %17 = sub i64 %15, %16
  %18 = getelementptr inbounds nuw i8, ptr %12, i64 1
  %19 = tail call i64 @strlen(ptr noundef nonnull dereferenceable(1) %18) #17
  %20 = icmp ugt i64 %17, 63
  %21 = icmp ugt i64 %19, 63
  %or.cond = select i1 %20, i1 true, i1 %21
  br i1 %or.cond, label %58, label %22

22:                                               ; preds = %14
  %.not = icmp eq i8 %2, 0
  br i1 %.not, label %.split30, label %php_iconv_stream_filter_ctor.exit

.split30:                                         ; preds = %22
  %23 = tail call noalias ptr @_emalloc_192() #16
  %24 = add nuw nsw i64 %19, 1
  %25 = tail call noalias ptr @_emalloc(i64 noundef %24) #19
  %26 = getelementptr inbounds nuw i8, ptr %23, i64 16
  store ptr %25, ptr %26, align 8, !tbaa !91
  %27 = getelementptr inbounds nuw i8, ptr %23, i64 24
  store i64 %19, ptr %27, align 8, !tbaa !93
  %28 = add nuw nsw i64 %17, 1
  %29 = tail call noalias ptr @_emalloc(i64 noundef %28) #19
  %30 = getelementptr inbounds nuw i8, ptr %23, i64 32
  store ptr %29, ptr %30, align 8, !tbaa !94
  %31 = getelementptr inbounds nuw i8, ptr %23, i64 40
  store i64 %17, ptr %31, align 8, !tbaa !95
  %32 = load ptr, ptr %26, align 8, !tbaa !91
  tail call void @llvm.memcpy.p0.p0.i64(ptr align 1 %32, ptr nonnull readonly align 1 %18, i64 range(i64 0, 64) %19, i1 false)
  %33 = load ptr, ptr %26, align 8, !tbaa !91
  %34 = getelementptr inbounds nuw i8, ptr %33, i64 %19
  store i8 0, ptr %34, align 1, !tbaa !4
  %35 = load ptr, ptr %30, align 8, !tbaa !94
  tail call void @llvm.memcpy.p0.p0.i64(ptr align 1 %35, ptr nonnull readonly align 1 %11, i64 range(i64 0, 64) %17, i1 false)
  %36 = load ptr, ptr %30, align 8, !tbaa !94
  %37 = getelementptr inbounds nuw i8, ptr %36, i64 %17
  store i8 0, ptr %37, align 1, !tbaa !4
  %38 = load ptr, ptr %26, align 8, !tbaa !91
  %39 = load ptr, ptr %30, align 8, !tbaa !94
  %40 = tail call ptr @iconv_open(ptr noundef %38, ptr noundef %39) #16
  store ptr %40, ptr %23, align 8, !tbaa !96
  %41 = icmp eq ptr %40, inttoptr (i64 -1 to ptr)
  br i1 %41, label %48, label %php_iconv_stream_filter_ctor.exit.thread

php_iconv_stream_filter_ctor.exit.thread:         ; preds = %.split30
  %42 = getelementptr inbounds nuw i8, ptr %23, i64 8
  store i32 0, ptr %42, align 8, !tbaa !97
  %43 = getelementptr inbounds nuw i8, ptr %23, i64 176
  store i64 0, ptr %43, align 8, !tbaa !98
  br label %51

php_iconv_stream_filter_ctor.exit:                ; preds = %22
  %44 = zext i8 %2 to i32
  %45 = tail call noalias dereferenceable_or_null(184) ptr @__zend_malloc(i64 noundef 184) #19
  %46 = tail call fastcc i32 @php_iconv_stream_filter_ctor(ptr noundef %45, ptr noundef %18, i64 noundef %19, ptr noundef %11, i64 noundef %17, i32 noundef %44)
  %.not37 = icmp eq i32 %46, 0
  br i1 %.not37, label %51, label %47

47:                                               ; preds = %php_iconv_stream_filter_ctor.exit
  tail call void @free(ptr noundef %45) #16
  br label %58

48:                                               ; preds = %.split30
  %49 = load ptr, ptr %30, align 8, !tbaa !94
  tail call void @_efree(ptr noundef %49) #16
  %50 = load ptr, ptr %26, align 8, !tbaa !91
  tail call void @_efree(ptr noundef %50) #16
  tail call void @_efree(ptr noundef nonnull %23) #16
  br label %58

51:                                               ; preds = %php_iconv_stream_filter_ctor.exit.thread, %php_iconv_stream_filter_ctor.exit
  %52 = phi ptr [ %23, %php_iconv_stream_filter_ctor.exit.thread ], [ %45, %php_iconv_stream_filter_ctor.exit ]
  %53 = tail call ptr @_php_stream_filter_alloc(ptr noundef nonnull @php_iconv_stream_filter_ops, ptr noundef %52, i8 noundef zeroext %2) #16
  %54 = icmp eq ptr %53, null
  br i1 %54, label %55, label %58

55:                                               ; preds = %51
  tail call fastcc void @php_iconv_stream_filter_dtor(ptr noundef %52)
  br i1 %.not, label %57, label %56

56:                                               ; preds = %55
  tail call void @free(ptr noundef %52) #16
  br label %58

57:                                               ; preds = %55
  tail call void @_efree(ptr noundef %52) #16
  br label %58

58:                                               ; preds = %51, %57, %56, %47, %48, %14, %10, %6, %3
  %.0 = phi ptr [ null, %3 ], [ null, %6 ], [ null, %10 ], [ null, %14 ], [ null, %48 ], [ null, %47 ], [ null, %56 ], [ null, %57 ], [ %53, %51 ]
  ret ptr %.0
}